target datalayout = "e-m:e-p270:32:32-p271:32:32-p272:64:64-i64:64-i128:128-f80:128-n8:16:32:64-S128"
target triple = "x86_64-pc-linux-gnu"

%"class.icu_77::ConstrainedFieldPosition" = type <{ i64, i32, i32, i32, i32, i8, [7 x i8] }>

; Function Attrs: mustprogress nounwind uwtable
define void @_ZN6icu_7724ConstrainedFieldPosition14constrainFieldEii(ptr noundef nonnull align 8 dereferenceable(25) %0, i32 noundef %1, i32 noundef %2) #0 align 2 {
  %4 = alloca ptr, align 8
  %5 = alloca i32, align 4
  %6 = alloca i32, align 4
  store ptr %0, ptr %4, align 8, !tbaa !23
  store i32 %1, ptr %5, align 4, !tbaa !14
  store i32 %2, ptr %6, align 4, !tbaa !14
  %7 = load ptr, ptr %4, align 8
  %8 = getelementptr inbounds nuw %"class.icu_77::ConstrainedFieldPosition", ptr %7, i32 0, i32 5
  store i8 2, ptr %8, align 8, !tbaa !31
  %9 = load i32, ptr %5, align 4, !tbaa !14
  %10 = getelementptr inbounds nuw %"class.icu_77::ConstrainedFieldPosition", ptr %7, i32 0, i32 4
  store i32 %9, ptr %10, align 4, !tbaa !30
  %11 = load i32, ptr %6, align 4, !tbaa !14
  %12 = getelementptr inbounds nuw %"class.icu_77::ConstrainedFieldPosition", ptr %7, i32 0, i32 1
  store i32 %11, ptr %12, align 8, !tbaa !27
  ret void
}