; Function Attrs: mustprogress nofree norecurse nosync nounwind willreturn memory(argmem: write) uwtable
define void @_ZN6icu_7724ConstrainedFieldPosition14constrainFieldEii(ptr noundef nonnull writeonly align 8 captures(none) dereferenceable(25) initializes((8, 12), (20, 25)) %0, i32 noundef %1, i32 noundef %2) local_unnamed_addr #10 align 2 {
  %4 = getelementptr inbounds nuw i8, ptr %0, i64 24
  store i8 2, ptr %4, align 8, !tbaa !15
  %5 = getelementptr inbounds nuw i8, ptr %0, i64 20
  store i32 %1, ptr %5, align 4, !tbaa !18
  %6 = getelementptr inbounds nuw i8, ptr %0, i64 8
  store i32 %2, ptr %6, align 8, !tbaa !19
  ret void
}